target datalayout = "e-m:e-p270:32:32-p271:32:32-p272:64:64-i64:64-i128:128-f80:128-n8:16:32:64-S128"
target triple = "x86_64-pc-linux-gnu"

@.str.5 = private unnamed_addr constant [15 x i8] c"__itt_api_init\00", align 1
@.str.150 = private unnamed_addr constant [18 x i8] c"__itt_api_version\00", align 1

; Function Attrs: mustprogress nounwind sspstrong uwtable
define internal noundef i32 @_ZL17__itt_lib_versionPv(ptr noundef %0) #1 {
  %2 = alloca i32, align 4
  %3 = alloca ptr, align 8
  store ptr %0, ptr %3, align 8, !tbaa !22
  %4 = load ptr, ptr %3, align 8, !tbaa !22
  %5 = icmp eq ptr %4, null
  br i1 %5, label %6, label %7

6:                                                ; preds = %1
  store i32 0, ptr %2, align 4
  br label %18

7:                                                ; preds = %1
  %8 = load ptr, ptr %3, align 8, !tbaa !22
  %9 = call ptr @dlsym(ptr noundef %8, ptr noundef @.str.5) #12
  %10 = icmp ne ptr %9, null
  br i1 %10, label %11, label %12

11:                                               ; preds = %7
  store i32 2, ptr %2, align 4
  br label %18

12:                                               ; preds = %7
  %13 = load ptr, ptr %3, align 8, !tbaa !22
  %14 = call ptr @dlsym(ptr noundef %13, ptr noundef @.str.150) #12
  %15 = icmp ne ptr %14, null
  br i1 %15, label %16, label %17

16:                                               ; preds = %12
  store i32 1, ptr %2, align 4
  br label %18

17:                                               ; preds = %12
  store i32 0, ptr %2, align 4
  br label %18

18:                                               ; preds = %17, %16, %11, %6
  %19 = load i32, ptr %2, align 4
  ret i32 %19
}